; Function Attrs: nounwind uwtable
define void @_ZTv0_n24_N14duckdb_parquet14ColumnMetaDataD0Ev(ptr noundef %0) unnamed_addr #5 align 2 {
  %2 = load ptr, ptr %0, align 8, !tbaa !22
  %3 = getelementptr inbounds i8, ptr %2, i64 -24
  %4 = load i64, ptr %3, align 8
  %5 = getelementptr inbounds i8, ptr %0, i64 %4
  tail call void @_ZN14duckdb_parquet14ColumnMetaDataD2Ev(ptr noundef nonnull align 8 dereferenceable(417) %5, ptr noundef nonnull @_ZTTN14duckdb_parquet14ColumnMetaDataE) #26
  tail call void @_ZdlPv(ptr noundef nonnull align 8 dereferenceable(417) %5) #28
  ret void
}